; Function Attrs: nofree norecurse nosync nounwind memory(read, argmem: readwrite, inaccessiblemem: none) uwtable
define dso_local i32 @get_aggregate_argtypes(ptr noundef readonly captures(none) %0, ptr noundef writeonly captures(none) %1) local_unnamed_addr #7 {
  %3 = getelementptr inbounds nuw i8, ptr %0, i64 24
  %4 = load ptr, ptr %3, align 8
  %5 = getelementptr inbounds nuw i8, ptr %4, i64 4
  %.not = icmp eq ptr %4, null
  br i1 %.not, label %._crit_edge, label %.lr.ph

.lr.ph:                                           ; preds = %2
  %6 = getelementptr inbounds nuw i8, ptr %4, i64 16
  %7 = load i32, ptr %5, align 4
  %8 = icmp sgt i32 %7, 0
  br i1 %8, label %.lr.ph20, label %._crit_edge

._crit_edge.loopexit:                             ; preds = %.lr.ph20
  %9 = trunc nuw nsw i64 %indvars.iv.next to i32
  br label %._crit_edge

._crit_edge:                                      ; preds = %._crit_edge.loopexit, %.lr.ph, %2
  %.0.lcssa = phi i32 [ 0, %2 ], [ 0, %.lr.ph ], [ %9, %._crit_edge.loopexit ]
  ret i32 %.0.lcssa

.lr.ph20:                                         ; preds = %.lr.ph, %.lr.ph20
  %indvars.iv = phi i64 [ %indvars.iv.next, %.lr.ph20 ], [ 0, %.lr.ph ]
  %10 = load ptr, ptr %6, align 8
  %11 = getelementptr inbounds nuw %union.ListCell, ptr %10, i64 %indvars.iv
  %12 = load i32, ptr %11, align 8
  %indvars.iv.next = add nuw nsw i64 %indvars.iv, 1
  %13 = getelementptr inbounds nuw i32, ptr %1, i64 %indvars.iv
  store i32 %12, ptr %13, align 4
  %14 = load i32, ptr %5, align 4
  %15 = sext i32 %14 to i64
  %16 = icmp slt i64 %indvars.iv.next, %15
  br i1 %16, label %.lr.ph20, label %._crit_edge.loopexit
}